target datalayout = "e-m:e-p270:32:32-p271:32:32-p272:64:64-i64:64-i128:128-f80:128-n8:16:32:64-S128"
target triple = "x86_64-pc-linux-gnu"

%struct.atomic_p_t = type { ptr }
%struct.peak_s = type { i64, i64 }
%struct.tsd_s = type { i8, i8, i8, i64, i64, i64, i64, i64, i64, i64, i64, i64, i64, i64, i64, i64, ptr, i64, i64, i64, ptr, ptr, %struct.ticker_geom_s, i8, %struct.tsd_binshards_s, %struct.tsd_link_t, i8, %struct.peak_s, %struct.activity_callback_thunk_s, %struct.tcache_slow_s, %struct.rtree_ctx_s, %struct.atomic_u8_t, i64, i64, i64, i64, %struct.tcache_s, %struct.witness_tsd_s }
%struct.ticker_geom_s = type { i32, i32 }
%struct.tsd_binshards_s = type { [36 x i8] }
%struct.tsd_link_t = type { ptr, ptr }
%struct.activity_callback_thunk_s = type { ptr, ptr }
%struct.tcache_slow_s = type { %struct.anon, %struct.cache_bin_array_descriptor_s, ptr, i32, %struct.nstime_t, i32, i32, i32, [36 x %struct.cache_bin_fill_ctl_s], [36 x i8], [36 x i8], ptr, ptr }
%struct.anon = type { ptr, ptr }
%struct.cache_bin_array_descriptor_s = type { %struct.anon.0, ptr }
%struct.anon.0 = type { ptr, ptr }
%struct.nstime_t = type { i64 }
%struct.cache_bin_fill_ctl_s = type { i8, i8 }
%struct.rtree_ctx_s = type { [16 x %struct.rtree_ctx_cache_elm_s], [8 x %struct.rtree_ctx_cache_elm_s] }
%struct.rtree_ctx_cache_elm_s = type { i64, ptr }
%struct.atomic_u8_t = type { i8 }
%struct.tcache_s = type { ptr, [73 x %struct.cache_bin_s] }
%struct.cache_bin_s = type { ptr, %struct.cache_bin_stats_s, i16, i16, i16, %struct.cache_bin_info_s }
%struct.cache_bin_stats_s = type { i64 }
%struct.cache_bin_info_s = type { i16 }
%struct.witness_tsd_s = type { %struct.witness_list_t, i8 }
%struct.witness_list_t = type { ptr }

@je_opt_experimental_lg_prof_threshold = hidden global i64 27, align 8
@prof_threshold_hook = internal global %struct.atomic_p_t zeroinitializer, align 8

; Function Attrs: nounwind uwtable
define hidden void @je_prof_threshold_hook_set(ptr noundef %0) #0 {
  %2 = alloca ptr, align 8
  store ptr %0, ptr %2, align 8, !tbaa !4
  %3 = load ptr, ptr %2, align 8, !tbaa !4
  call void @atomic_store_p(ptr noundef @prof_threshold_hook, ptr noundef %3, i32 noundef 2)
  ret void
}

; Function Attrs: alwaysinline nounwind uwtable
define internal void @atomic_store_p(ptr noundef %0, ptr noundef %1, i32 noundef %2) #1 {
  %4 = alloca ptr, align 8
  %5 = alloca ptr, align 8
  %6 = alloca i32, align 4
  store ptr %0, ptr %4, align 8, !tbaa !4
  store ptr %1, ptr %5, align 8, !tbaa !4
  store i32 %2, ptr %6, align 4, !tbaa !8
  %7 = load ptr, ptr %4, align 8, !tbaa !4
  %8 = getelementptr inbounds nuw %struct.atomic_p_t, ptr %7, i32 0, i32 0
  %9 = load i32, ptr %6, align 4, !tbaa !8
  %10 = call i32 @atomic_enum_to_builtin(i32 noundef %9)
  switch i32 %10, label %11 [
    i32 3, label %13
    i32 5, label %15
  ]

11:                                               ; preds = %3
  %12 = load i64, ptr %5, align 8
  store atomic i64 %12, ptr %8 monotonic, align 8
  br label %17

13:                                               ; preds = %3
  %14 = load i64, ptr %5, align 8
  store atomic i64 %14, ptr %8 release, align 8
  br label %17

15:                                               ; preds = %3
  %16 = load i64, ptr %5, align 8
  store atomic i64 %16, ptr %8 seq_cst, align 8
  br label %17

17:                                               ; preds = %15, %13, %11
  ret void
}

; Function Attrs: nounwind uwtable
define hidden ptr @je_prof_threshold_hook_get() #0 {
  %1 = call ptr @atomic_load_p(ptr noundef @prof_threshold_hook, i32 noundef 1)
  ret ptr %1
}

; Function Attrs: alwaysinline nounwind uwtable
define internal ptr @atomic_load_p(ptr noundef %0, i32 noundef %1) #1 {
  %3 = alloca ptr, align 8
  %4 = alloca i32, align 4
  %5 = alloca ptr, align 8
  store ptr %0, ptr %3, align 8, !tbaa !4
  store i32 %1, ptr %4, align 4, !tbaa !8
  call void @llvm.lifetime.start.p0(i64 8, ptr %5) #5
  %6 = load ptr, ptr %3, align 8, !tbaa !4
  %7 = getelementptr inbounds nuw %struct.atomic_p_t, ptr %6, i32 0, i32 0
  %8 = load i32, ptr %4, align 4, !tbaa !8
  %9 = call i32 @atomic_enum_to_builtin(i32 noundef %8)
  switch i32 %9, label %10 [
    i32 1, label %12
    i32 2, label %12
    i32 5, label %14
  ]

10:                                               ; preds = %2
  %11 = load atomic i64, ptr %7 monotonic, align 8
  store i64 %11, ptr %5, align 8
  br label %16

12:                                               ; preds = %2, %2
  %13 = load atomic i64, ptr %7 acquire, align 8
  store i64 %13, ptr %5, align 8
  br label %16

14:                                               ; preds = %2
  %15 = load atomic i64, ptr %7 seq_cst, align 8
  store i64 %15, ptr %5, align 8
  br label %16

16:                                               ; preds = %14, %12, %10
  %17 = load ptr, ptr %5, align 8, !tbaa !4
  call void @llvm.lifetime.end.p0(i64 8, ptr %5) #5
  ret ptr %17
}

; Function Attrs: nounwind uwtable
define hidden i64 @je_prof_threshold_new_event_wait(ptr noundef %0) #0 {
  %2 = alloca ptr, align 8
  store ptr %0, ptr %2, align 8, !tbaa !10
  %3 = load i64, ptr @je_opt_experimental_lg_prof_threshold, align 8, !tbaa !12
  %4 = trunc i64 %3 to i32
  %5 = shl i32 1, %4
  %6 = sext i32 %5 to i64
  ret i64 %6
}

; Function Attrs: nounwind uwtable
define hidden i64 @je_prof_threshold_postponed_event_wait(ptr noundef %0) #0 {
  %2 = alloca ptr, align 8
  store ptr %0, ptr %2, align 8, !tbaa !10
  ret i64 1
}

; Function Attrs: nounwind uwtable
define hidden void @je_prof_threshold_event_handler(ptr noundef %0, i64 noundef %1) #0 {
  %3 = alloca ptr, align 8
  %4 = alloca i64, align 8
  store ptr %0, ptr %3, align 8, !tbaa !10
  store i64 %1, ptr %4, align 8, !tbaa !12
  %5 = load ptr, ptr %3, align 8, !tbaa !10
  call void @prof_threshold_update(ptr noundef %5)
  ret void
}

; Function Attrs: nounwind uwtable
define internal void @prof_threshold_update(ptr noundef %0) #0 {
  %2 = alloca ptr, align 8
  %3 = alloca ptr, align 8
  %4 = alloca i32, align 4
  %5 = alloca i64, align 8
  %6 = alloca i64, align 8
  %7 = alloca ptr, align 8
  store ptr %0, ptr %2, align 8, !tbaa !10
  call void @llvm.lifetime.start.p0(i64 8, ptr %3) #5
  %8 = call ptr @je_prof_threshold_hook_get()
  store ptr %8, ptr %3, align 8, !tbaa !4
  %9 = load ptr, ptr %3, align 8, !tbaa !4
  %10 = icmp eq ptr %9, null
  br i1 %10, label %11, label %12

11:                                               ; preds = %1
  store i32 1, ptr %4, align 4
  br label %27

12:                                               ; preds = %1
  call void @llvm.lifetime.start.p0(i64 8, ptr %5) #5
  %13 = load ptr, ptr %2, align 8, !tbaa !10
  %14 = call i64 @tsd_thread_allocated_get(ptr noundef %13)
  store i64 %14, ptr %5, align 8, !tbaa !12
  call void @llvm.lifetime.start.p0(i64 8, ptr %6) #5
  %15 = load ptr, ptr %2, align 8, !tbaa !10
  %16 = call i64 @tsd_thread_deallocated_get(ptr noundef %15)
  store i64 %16, ptr %6, align 8, !tbaa !12
  call void @llvm.lifetime.start.p0(i64 8, ptr %7) #5
  %17 = load ptr, ptr %2, align 8, !tbaa !10
  %18 = call ptr @tsd_peakp_get(ptr noundef %17)
  store ptr %18, ptr %7, align 8, !tbaa !14
  %19 = load ptr, ptr %2, align 8, !tbaa !10
  call void @pre_reentrancy(ptr noundef %19, ptr noundef null)
  %20 = load ptr, ptr %3, align 8, !tbaa !4
  %21 = load i64, ptr %5, align 8, !tbaa !12
  %22 = load i64, ptr %6, align 8, !tbaa !12
  %23 = load ptr, ptr %7, align 8, !tbaa !14
  %24 = getelementptr inbounds nuw %struct.peak_s, ptr %23, i32 0, i32 0
  %25 = load i64, ptr %24, align 8, !tbaa !16
  call void %20(i64 noundef %21, i64 noundef %22, i64 noundef %25)
  %26 = load ptr, ptr %2, align 8, !tbaa !10
  call void @post_reentrancy(ptr noundef %26)
  call void @llvm.lifetime.end.p0(i64 8, ptr %7) #5
  call void @llvm.lifetime.end.p0(i64 8, ptr %6) #5
  call void @llvm.lifetime.end.p0(i64 8, ptr %5) #5
  store i32 0, ptr %4, align 4
  br label %27

27:                                               ; preds = %12, %11
  call void @llvm.lifetime.end.p0(i64 8, ptr %3) #5
  %28 = load i32, ptr %4, align 4
  switch i32 %28, label %30 [
    i32 0, label %29
    i32 1, label %29
  ]

29:                                               ; preds = %27, %27
  ret void

30:                                               ; preds = %27
  unreachable
}

; Function Attrs: alwaysinline nounwind uwtable
define internal i32 @atomic_enum_to_builtin(i32 noundef %0) #1 {
  %2 = alloca i32, align 4
  %3 = alloca i32, align 4
  store i32 %0, ptr %3, align 4, !tbaa !8
  %4 = load i32, ptr %3, align 4, !tbaa !8
  switch i32 %4, label %10 [
    i32 0, label %5
    i32 1, label %6
    i32 2, label %7
    i32 3, label %8
    i32 4, label %9
  ]

5:                                                ; preds = %1
  store i32 0, ptr %2, align 4
  br label %12

6:                                                ; preds = %1
  store i32 2, ptr %2, align 4
  br label %12

7:                                                ; preds = %1
  store i32 3, ptr %2, align 4
  br label %12

8:                                                ; preds = %1
  store i32 4, ptr %2, align 4
  br label %12

9:                                                ; preds = %1
  store i32 5, ptr %2, align 4
  br label %12

10:                                               ; preds = %1
  br label %11

11:                                               ; preds = %10
  unreachable

12:                                               ; preds = %5, %6, %7, %8, %9
  %13 = load i32, ptr %2, align 4
  ret i32 %13
}

; Function Attrs: nocallback nofree nosync nounwind willreturn memory(argmem: readwrite)
declare void @llvm.lifetime.start.p0(i64 immarg, ptr captures(none)) #2

; Function Attrs: nocallback nofree nosync nounwind willreturn memory(argmem: readwrite)
declare void @llvm.lifetime.end.p0(i64 immarg, ptr captures(none)) #2

; Function Attrs: alwaysinline nounwind uwtable
define internal i64 @tsd_thread_allocated_get(ptr noundef %0) #1 {
  %2 = alloca ptr, align 8
  store ptr %0, ptr %2, align 8, !tbaa !10
  %3 = load ptr, ptr %2, align 8, !tbaa !10
  %4 = call ptr @tsd_thread_allocatedp_get(ptr noundef %3)
  %5 = load i64, ptr %4, align 8, !tbaa !12
  ret i64 %5
}

; Function Attrs: alwaysinline nounwind uwtable
define internal i64 @tsd_thread_deallocated_get(ptr noundef %0) #1 {
  %2 = alloca ptr, align 8
  store ptr %0, ptr %2, align 8, !tbaa !10
  %3 = load ptr, ptr %2, align 8, !tbaa !10
  %4 = call ptr @tsd_thread_deallocatedp_get(ptr noundef %3)
  %5 = load i64, ptr %4, align 8, !tbaa !12
  ret i64 %5
}

; Function Attrs: alwaysinline nounwind uwtable
define internal ptr @tsd_peakp_get(ptr noundef %0) #1 {
  %2 = alloca ptr, align 8
  %3 = alloca i8, align 1
  store ptr %0, ptr %2, align 8, !tbaa !10
  call void @llvm.lifetime.start.p0(i64 1, ptr %3) #5
  %4 = load ptr, ptr %2, align 8, !tbaa !10
  %5 = call zeroext i8 @tsd_state_get(ptr noundef %4)
  store i8 %5, ptr %3, align 1, !tbaa !18
  br label %6

6:                                                ; preds = %1
  br label %7

7:                                                ; preds = %6
  br label %8

8:                                                ; preds = %7
  %9 = load ptr, ptr %2, align 8, !tbaa !10
  %10 = call ptr @tsd_peakp_get_unsafe(ptr noundef %9)
  call void @llvm.lifetime.end.p0(i64 1, ptr %3) #5
  ret ptr %10
}

; Function Attrs: inlinehint nounwind uwtable
define internal void @pre_reentrancy(ptr noundef %0, ptr noundef %1) #3 {
  %3 = alloca ptr, align 8
  %4 = alloca ptr, align 8
  store ptr %0, ptr %3, align 8, !tbaa !10
  store ptr %1, ptr %4, align 8, !tbaa !19
  br label %5

5:                                                ; preds = %2
  br label %6

6:                                                ; preds = %5
  %7 = load ptr, ptr %3, align 8, !tbaa !10
  call void @tsd_pre_reentrancy_raw(ptr noundef %7)
  ret void
}

; Function Attrs: inlinehint nounwind uwtable
define internal void @post_reentrancy(ptr noundef %0) #3 {
  %2 = alloca ptr, align 8
  store ptr %0, ptr %2, align 8, !tbaa !10
  %3 = load ptr, ptr %2, align 8, !tbaa !10
  call void @tsd_post_reentrancy_raw(ptr noundef %3)
  ret void
}

; Function Attrs: alwaysinline nounwind uwtable
define internal ptr @tsd_thread_allocatedp_get(ptr noundef %0) #1 {
  %2 = alloca ptr, align 8
  %3 = alloca i8, align 1
  store ptr %0, ptr %2, align 8, !tbaa !10
  call void @llvm.lifetime.start.p0(i64 1, ptr %3) #5
  %4 = load ptr, ptr %2, align 8, !tbaa !10
  %5 = call zeroext i8 @tsd_state_get(ptr noundef %4)
  store i8 %5, ptr %3, align 1, !tbaa !18
  br label %6

6:                                                ; preds = %1
  br label %7

7:                                                ; preds = %6
  br label %8

8:                                                ; preds = %7
  %9 = load ptr, ptr %2, align 8, !tbaa !10
  %10 = call ptr @tsd_thread_allocatedp_get_unsafe(ptr noundef %9)
  call void @llvm.lifetime.end.p0(i64 1, ptr %3) #5
  ret ptr %10
}

; Function Attrs: alwaysinline nounwind uwtable
define internal zeroext i8 @tsd_state_get(ptr noundef %0) #1 {
  %2 = alloca ptr, align 8
  store ptr %0, ptr %2, align 8, !tbaa !10
  %3 = load ptr, ptr %2, align 8, !tbaa !10
  %4 = getelementptr inbounds nuw %struct.tsd_s, ptr %3, i32 0, i32 31
  %5 = load i8, ptr %4, align 8, !tbaa !18
  ret i8 %5
}

; Function Attrs: alwaysinline nounwind uwtable
define internal ptr @tsd_thread_allocatedp_get_unsafe(ptr noundef %0) #1 {
  %2 = alloca ptr, align 8
  store ptr %0, ptr %2, align 8, !tbaa !10
  %3 = load ptr, ptr %2, align 8, !tbaa !10
  %4 = getelementptr inbounds nuw %struct.tsd_s, ptr %3, i32 0, i32 32
  ret ptr %4
}

; Function Attrs: alwaysinline nounwind uwtable
define internal ptr @tsd_thread_deallocatedp_get(ptr noundef %0) #1 {
  %2 = alloca ptr, align 8
  %3 = alloca i8, align 1
  store ptr %0, ptr %2, align 8, !tbaa !10
  call void @llvm.lifetime.start.p0(i64 1, ptr %3) #5
  %4 = load ptr, ptr %2, align 8, !tbaa !10
  %5 = call zeroext i8 @tsd_state_get(ptr noundef %4)
  store i8 %5, ptr %3, align 1, !tbaa !18
  br label %6

6:                                                ; preds = %1
  br label %7

7:                                                ; preds = %6
  br label %8

8:                                                ; preds = %7
  %9 = load ptr, ptr %2, align 8, !tbaa !10
  %10 = call ptr @tsd_thread_deallocatedp_get_unsafe(ptr noundef %9)
  call void @llvm.lifetime.end.p0(i64 1, ptr %3) #5
  ret ptr %10
}

; Function Attrs: alwaysinline nounwind uwtable
define internal ptr @tsd_thread_deallocatedp_get_unsafe(ptr noundef %0) #1 {
  %2 = alloca ptr, align 8
  store ptr %0, ptr %2, align 8, !tbaa !10
  %3 = load ptr, ptr %2, align 8, !tbaa !10
  %4 = getelementptr inbounds nuw %struct.tsd_s, ptr %3, i32 0, i32 34
  ret ptr %4
}

; Function Attrs: alwaysinline nounwind uwtable
define internal ptr @tsd_peakp_get_unsafe(ptr noundef %0) #1 {
  %2 = alloca ptr, align 8
  store ptr %0, ptr %2, align 8, !tbaa !10
  %3 = load ptr, ptr %2, align 8, !tbaa !10
  %4 = getelementptr inbounds nuw %struct.tsd_s, ptr %3, i32 0, i32 27
  ret ptr %4
}

; Function Attrs: inlinehint nounwind uwtable
define internal void @tsd_pre_reentrancy_raw(ptr noundef %0) #3 {
  %2 = alloca ptr, align 8
  %3 = alloca i8, align 1
  store ptr %0, ptr %2, align 8, !tbaa !10
  call void @llvm.lifetime.start.p0(i64 1, ptr %3) #5
  %4 = load ptr, ptr %2, align 8, !tbaa !10
  %5 = call zeroext i1 @tsd_fast(ptr noundef %4)
  %6 = zext i1 %5 to i8
  store i8 %6, ptr %3, align 1, !tbaa !21
  br label %7

7:                                                ; preds = %1
  br label %8

8:                                                ; preds = %7
  br label %9

9:                                                ; preds = %8
  %10 = load ptr, ptr %2, align 8, !tbaa !10
  %11 = call ptr @tsd_reentrancy_levelp_get(ptr noundef %10)
  %12 = load i8, ptr %11, align 1, !tbaa !18
  %13 = add i8 %12, 1
  store i8 %13, ptr %11, align 1, !tbaa !18
  %14 = load i8, ptr %3, align 1, !tbaa !21, !range !23, !noundef !24
  %15 = trunc i8 %14 to i1
  br i1 %15, label %16, label %21

16:                                               ; preds = %9
  %17 = load ptr, ptr %2, align 8, !tbaa !10
  call void @je_tsd_slow_update(ptr noundef %17)
  br label %18

18:                                               ; preds = %16
  br label %19

19:                                               ; preds = %18
  br label %20

20:                                               ; preds = %19
  br label %21

21:                                               ; preds = %20, %9
  call void @llvm.lifetime.end.p0(i64 1, ptr %3) #5
  ret void
}

; Function Attrs: alwaysinline nounwind uwtable
define internal zeroext i1 @tsd_fast(ptr noundef %0) #1 {
  %2 = alloca ptr, align 8
  %3 = alloca i8, align 1
  store ptr %0, ptr %2, align 8, !tbaa !10
  call void @llvm.lifetime.start.p0(i64 1, ptr %3) #5
  %4 = load ptr, ptr %2, align 8, !tbaa !10
  %5 = call zeroext i8 @tsd_state_get(ptr noundef %4)
  %6 = zext i8 %5 to i32
  %7 = icmp eq i32 %6, 0
  %8 = zext i1 %7 to i8
  store i8 %8, ptr %3, align 1, !tbaa !21
  %9 = load i8, ptr %3, align 1, !tbaa !21, !range !23, !noundef !24
  %10 = trunc i8 %9 to i1
  br i1 %10, label %11, label %13

11:                                               ; preds = %1
  %12 = load ptr, ptr %2, align 8, !tbaa !10
  call void @tsd_assert_fast(ptr noundef %12)
  br label %13

13:                                               ; preds = %11, %1
  %14 = load i8, ptr %3, align 1, !tbaa !21, !range !23, !noundef !24
  %15 = trunc i8 %14 to i1
  call void @llvm.lifetime.end.p0(i64 1, ptr %3) #5
  ret i1 %15
}

; Function Attrs: alwaysinline nounwind uwtable
define internal ptr @tsd_reentrancy_levelp_get(ptr noundef %0) #1 {
  %2 = alloca ptr, align 8
  %3 = alloca i8, align 1
  store ptr %0, ptr %2, align 8, !tbaa !10
  call void @llvm.lifetime.start.p0(i64 1, ptr %3) #5
  %4 = load ptr, ptr %2, align 8, !tbaa !10
  %5 = call zeroext i8 @tsd_state_get(ptr noundef %4)
  store i8 %5, ptr %3, align 1, !tbaa !18
  br label %6

6:                                                ; preds = %1
  br label %7

7:                                                ; preds = %6
  br label %8

8:                                                ; preds = %7
  %9 = load ptr, ptr %2, align 8, !tbaa !10
  %10 = call ptr @tsd_reentrancy_levelp_get_unsafe(ptr noundef %9)
  call void @llvm.lifetime.end.p0(i64 1, ptr %3) #5
  ret ptr %10
}

declare void @je_tsd_slow_update(ptr noundef) #4

; Function Attrs: alwaysinline nounwind uwtable
define internal void @tsd_assert_fast(ptr noundef %0) #1 {
  %2 = alloca ptr, align 8
  store ptr %0, ptr %2, align 8, !tbaa !10
  br label %3

3:                                                ; preds = %1
  br label %4

4:                                                ; preds = %3
  ret void
}

; Function Attrs: alwaysinline nounwind uwtable
define internal ptr @tsd_reentrancy_levelp_get_unsafe(ptr noundef %0) #1 {
  %2 = alloca ptr, align 8
  store ptr %0, ptr %2, align 8, !tbaa !10
  %3 = load ptr, ptr %2, align 8, !tbaa !10
  %4 = getelementptr inbounds nuw %struct.tsd_s, ptr %3, i32 0, i32 1
  ret ptr %4
}

; Function Attrs: inlinehint nounwind uwtable
define internal void @tsd_post_reentrancy_raw(ptr noundef %0) #3 {
  %2 = alloca ptr, align 8
  %3 = alloca ptr, align 8
  store ptr %0, ptr %2, align 8, !tbaa !10
  call void @llvm.lifetime.start.p0(i64 8, ptr %3) #5
  %4 = load ptr, ptr %2, align 8, !tbaa !10
  %5 = call ptr @tsd_reentrancy_levelp_get(ptr noundef %4)
  store ptr %5, ptr %3, align 8, !tbaa !25
  br label %6

6:                                                ; preds = %1
  br label %7

7:                                                ; preds = %6
  br label %8

8:                                                ; preds = %7
  %9 = load ptr, ptr %3, align 8, !tbaa !25
  %10 = load i8, ptr %9, align 1, !tbaa !18
  %11 = add i8 %10, -1
  store i8 %11, ptr %9, align 1, !tbaa !18
  %12 = sext i8 %11 to i32
  %13 = icmp eq i32 %12, 0
  br i1 %13, label %14, label %16

14:                                               ; preds = %8
  %15 = load ptr, ptr %2, align 8, !tbaa !10
  call void @je_tsd_slow_update(ptr noundef %15)
  br label %16

16:                                               ; preds = %14, %8
  call void @llvm.lifetime.end.p0(i64 8, ptr %3) #5
  ret void
}


!llvm.module.flags = !{!0, !1, !2, !3}

!0 = !{i32 1, !"wchar_size", i32 4}
!1 = !{i32 8, !"PIC Level", i32 2}
!2 = !{i32 7, !"PIE Level", i32 2}
!3 = !{i32 7, !"uwtable", i32 2}
!4 = !{!5, !5, i64 0}
!5 = !{!"any pointer", !6, i64 0}
!6 = !{!"omnipotent char", !7, i64 0}
!7 = !{!"Simple C/C++ TBAA"}
!8 = !{!9, !9, i64 0}
!9 = !{!"int", !6, i64 0}
!10 = !{!11, !11, i64 0}
!11 = !{!"p1 _ZTS5tsd_s", !5, i64 0}
!12 = !{!13, !13, i64 0}
!13 = !{!"long", !6, i64 0}
!14 = !{!15, !15, i64 0}
!15 = !{!"p1 _ZTS6peak_s", !5, i64 0}
!16 = !{!17, !13, i64 0}
!17 = !{!"peak_s", !13, i64 0, !13, i64 8}
!18 = !{!6, !6, i64 0}
!19 = !{!20, !20, i64 0}
!20 = !{!"p1 _ZTS7arena_s", !5, i64 0}
!21 = !{!22, !22, i64 0}
!22 = !{!"_Bool", !6, i64 0}
!23 = !{i8 0, i8 2}
!24 = !{}
!25 = !{!26, !26, i64 0}
!26 = !{!"p1 omnipotent char", !5, i64 0}
